target datalayout = "e-m:e-p270:32:32-p271:32:32-p272:64:64-i64:64-i128:128-f80:128-n8:16:32:64-S128"
target triple = "x86_64-pc-linux-gnu"

%"class.cv::utils::trace::details::Region" = type <{ ptr, i32, [4 x i8] }>
%"class.std::__cxx11::basic_string" = type { %"struct.std::__cxx11::basic_string<char>::_Alloc_hider", i64, %union.anon }
%"struct.std::__cxx11::basic_string<char>::_Alloc_hider" = type { ptr }
%union.anon = type { i64, [8 x i8] }
%"class.std::allocator" = type { i8 }

@.str.1 = private unnamed_addr constant [122 x i8] c"generated/home/dtcxzyw/WorkSpace/Projects/compilers/llvm-opt-benchmark/bench/opencv/opencv/modules/calib3d/src/fundam.cpp\00", align 1
@.str.22 = private unnamed_addr constant [17 x i8] c"_dst.fixedType()\00", align 1
@__func__._ZN2cv24convertPointsHomogeneousERKNS_11_InputArrayERKNS_12_OutputArrayE = private unnamed_addr constant [25 x i8] c"convertPointsHomogeneous\00", align 1

; Function Attrs: mustprogress uwtable
define void @_ZN2cv24convertPointsHomogeneousERKNS_11_InputArrayERKNS_12_OutputArrayE(ptr noundef nonnull align 8 dereferenceable(24) %0, ptr noundef nonnull align 8 dereferenceable(24) %1) #4 personality ptr @__gxx_personality_v0 {
  %3 = alloca ptr, align 8
  %4 = alloca ptr, align 8
  %5 = alloca %"class.cv::utils::trace::details::Region", align 8
  %6 = alloca i32, align 4
  %7 = alloca ptr, align 8
  %8 = alloca i32, align 4
  %9 = alloca i32, align 4
  %10 = alloca %"class.std::__cxx11::basic_string", align 8
  %11 = alloca %"class.std::allocator", align 1
  store ptr %0, ptr %3, align 8
  store ptr %1, ptr %4, align 8
  call void @_ZN2cv5utils5trace7details6RegionC1ERKNS3_21LocationStaticStorageE(ptr noundef nonnull align 8 dereferenceable(12) %5, ptr noundef nonnull align 8 dereferenceable(32) @_ZZN2cv24convertPointsHomogeneousERKNS_11_InputArrayERKNS_12_OutputArrayEE26__cv_trace_location_fn1197)
  %12 = load ptr, ptr %3, align 8
  %13 = invoke noundef i32 @_ZNK2cv11_InputArray4typeEi(ptr noundef nonnull align 8 dereferenceable(24) %12, i32 noundef -1)
          to label %14 unwind label %23

14:                                               ; preds = %2
  store i32 %13, ptr %6, align 4
  %15 = load ptr, ptr %4, align 8
  %16 = invoke noundef i32 @_ZNK2cv11_InputArray4typeEi(ptr noundef nonnull align 8 dereferenceable(24) %15, i32 noundef -1)
          to label %17 unwind label %23

17:                                               ; preds = %14
  store i32 %16, ptr %9, align 4
  br label %18

18:                                               ; preds = %17
  %19 = load ptr, ptr %4, align 8
  %20 = invoke noundef zeroext i1 @_ZNK2cv12_OutputArray9fixedTypeEv(ptr noundef nonnull align 8 dereferenceable(24) %19)
          to label %21 unwind label %23

21:                                               ; preds = %18
  br i1 %20, label %22, label %27

22:                                               ; preds = %21
  br label %39

23:                                               ; preds = %55, %51, %18, %14, %2
  %24 = landingpad { ptr, i32 }
          cleanup
  %25 = extractvalue { ptr, i32 } %24, 0
  store ptr %25, ptr %7, align 8
  %26 = extractvalue { ptr, i32 } %24, 1
  store i32 %26, ptr %8, align 4
  br label %60

27:                                               ; preds = %21
  call void @_ZNSaIcEC1Ev(ptr noundef nonnull align 1 dereferenceable(1) %11) #3
  invoke void @_ZNSt7__cxx1112basic_stringIcSt11char_traitsIcESaIcEEC1EPKcRKS3_(ptr noundef nonnull align 8 dereferenceable(32) %10, ptr noundef @.str.22, ptr noundef nonnull align 1 dereferenceable(1) %11)
          to label %28 unwind label %30

28:                                               ; preds = %27
  invoke void @_ZN2cv5errorEiRKNSt7__cxx1112basic_stringIcSt11char_traitsIcESaIcEEEPKcS9_i(i32 noundef -215, ptr noundef nonnull align 8 dereferenceable(32) %10, ptr noundef @__func__._ZN2cv24convertPointsHomogeneousERKNS_11_InputArrayERKNS_12_OutputArrayE, ptr noundef @.str.1, i32 noundef 1200) #14
          to label %29 unwind label %34

29:                                               ; preds = %28
  unreachable

30:                                               ; preds = %27
  %31 = landingpad { ptr, i32 }
          cleanup
  %32 = extractvalue { ptr, i32 } %31, 0
  store ptr %32, ptr %7, align 8
  %33 = extractvalue { ptr, i32 } %31, 1
  store i32 %33, ptr %8, align 4
  br label %38

34:                                               ; preds = %28
  %35 = landingpad { ptr, i32 }
          cleanup
  %36 = extractvalue { ptr, i32 } %35, 0
  store ptr %36, ptr %7, align 8
  %37 = extractvalue { ptr, i32 } %35, 1
  store i32 %37, ptr %8, align 4
  call void @_ZNSt7__cxx1112basic_stringIcSt11char_traitsIcESaIcEED1Ev(ptr noundef nonnull align 8 dereferenceable(32) %10) #3
  br label %38

38:                                               ; preds = %34, %30
  call void @_ZNSaIcED1Ev(ptr noundef nonnull align 1 dereferenceable(1) %11) #3
  br label %60

39:                                               ; preds = %22
  br label %40

40:                                               ; preds = %39
  br label %41

41:                                               ; preds = %40
  %42 = load i32, ptr %6, align 4
  %43 = and i32 %42, 4088
  %44 = ashr i32 %43, 3
  %45 = add nsw i32 %44, 1
  %46 = load i32, ptr %9, align 4
  %47 = and i32 %46, 4088
  %48 = ashr i32 %47, 3
  %49 = add nsw i32 %48, 1
  %50 = icmp sgt i32 %45, %49
  br i1 %50, label %51, label %55

51:                                               ; preds = %41
  %52 = load ptr, ptr %3, align 8
  %53 = load ptr, ptr %4, align 8
  invoke void @_ZN2cv28convertPointsFromHomogeneousERKNS_11_InputArrayERKNS_12_OutputArrayE(ptr noundef nonnull align 8 dereferenceable(24) %52, ptr noundef nonnull align 8 dereferenceable(24) %53)
          to label %54 unwind label %23

54:                                               ; preds = %51
  br label %59

55:                                               ; preds = %41
  %56 = load ptr, ptr %3, align 8
  %57 = load ptr, ptr %4, align 8
  invoke void @_ZN2cv26convertPointsToHomogeneousERKNS_11_InputArrayERKNS_12_OutputArrayE(ptr noundef nonnull align 8 dereferenceable(24) %56, ptr noundef nonnull align 8 dereferenceable(24) %57)
          to label %58 unwind label %23

58:                                               ; preds = %55
  br label %59

59:                                               ; preds = %58, %54
  call void @_ZN2cv5utils5trace7details6RegionD2Ev(ptr noundef nonnull align 8 dereferenceable(12) %5) #3
  ret void

60:                                               ; preds = %38, %23
  call void @_ZN2cv5utils5trace7details6RegionD2Ev(ptr noundef nonnull align 8 dereferenceable(12) %5) #3
  br label %61

61:                                               ; preds = %60
  %62 = load ptr, ptr %7, align 8
  %63 = load i32, ptr %8, align 4
  %64 = insertvalue { ptr, i32 } poison, ptr %62, 0
  %65 = insertvalue { ptr, i32 } %64, i32 %63, 1
  resume { ptr, i32 } %65
}