; Function Attrs: mustprogress uwtable
define void @_ZN2cv24convertPointsHomogeneousERKNS_11_InputArrayERKNS_12_OutputArrayE(ptr noundef nonnull align 8 dereferenceable(24) %0, ptr noundef nonnull align 8 dereferenceable(24) %1) local_unnamed_addr #3 personality ptr @__gxx_personality_v0 {
  %3 = alloca %"class.cv::utils::trace::details::Region", align 8
  %4 = alloca %"class.std::__cxx11::basic_string", align 8
  %5 = alloca %"class.std::allocator", align 1
  call void @_ZN2cv5utils5trace7details6RegionC1ERKNS3_21LocationStaticStorageE(ptr noundef nonnull align 8 dereferenceable(12) %3, ptr noundef nonnull align 8 dereferenceable(32) @_ZZN2cv24convertPointsHomogeneousERKNS_11_InputArrayERKNS_12_OutputArrayEE26__cv_trace_location_fn1197)
  %6 = invoke noundef i32 @_ZNK2cv11_InputArray4typeEi(ptr noundef nonnull align 8 dereferenceable(24) %0, i32 noundef -1)
          to label %7 unwind label %12

7:                                                ; preds = %2
  %8 = invoke noundef i32 @_ZNK2cv11_InputArray4typeEi(ptr noundef nonnull align 8 dereferenceable(24) %1, i32 noundef -1)
          to label %9 unwind label %12

9:                                                ; preds = %7
  %10 = invoke noundef zeroext i1 @_ZNK2cv12_OutputArray9fixedTypeEv(ptr noundef nonnull align 8 dereferenceable(24) %1)
          to label %11 unwind label %12

11:                                               ; preds = %9
  br i1 %10, label %22, label %14

12:                                               ; preds = %29, %28, %9, %7, %2
  %13 = landingpad { ptr, i32 }
          cleanup
  br label %37

14:                                               ; preds = %11
  call void @_ZNSaIcEC1Ev(ptr noundef nonnull align 1 dereferenceable(1) %5) #17
  invoke void @_ZNSt7__cxx1112basic_stringIcSt11char_traitsIcESaIcEEC1EPKcRKS3_(ptr noundef nonnull align 8 dereferenceable(32) %4, ptr noundef nonnull @.str.22, ptr noundef nonnull align 1 dereferenceable(1) %5)
          to label %15 unwind label %17

15:                                               ; preds = %14
  invoke void @_ZN2cv5errorEiRKNSt7__cxx1112basic_stringIcSt11char_traitsIcESaIcEEEPKcS9_i(i32 noundef -215, ptr noundef nonnull align 8 dereferenceable(32) %4, ptr noundef nonnull @__func__._ZN2cv24convertPointsHomogeneousERKNS_11_InputArrayERKNS_12_OutputArrayE, ptr noundef nonnull @.str.1, i32 noundef 1200) #18
          to label %16 unwind label %19

16:                                               ; preds = %15
  unreachable

17:                                               ; preds = %14
  %18 = landingpad { ptr, i32 }
          cleanup
  br label %21

19:                                               ; preds = %15
  %20 = landingpad { ptr, i32 }
          cleanup
  call void @_ZNSt7__cxx1112basic_stringIcSt11char_traitsIcESaIcEED1Ev(ptr noundef nonnull align 8 dereferenceable(32) %4) #17
  br label %21

21:                                               ; preds = %19, %17
  %.pn = phi { ptr, i32 } [ %20, %19 ], [ %18, %17 ]
  call void @_ZNSaIcED1Ev(ptr noundef nonnull align 1 dereferenceable(1) %5) #17
  br label %37

22:                                               ; preds = %11
  %23 = lshr i32 %6, 3
  %24 = and i32 %23, 511
  %25 = lshr i32 %8, 3
  %26 = and i32 %25, 511
  %27 = icmp ugt i32 %24, %26
  br i1 %27, label %28, label %29

28:                                               ; preds = %22
  invoke void @_ZN2cv28convertPointsFromHomogeneousERKNS_11_InputArrayERKNS_12_OutputArrayE(ptr noundef nonnull align 8 dereferenceable(24) %0, ptr noundef nonnull align 8 dereferenceable(24) %1)
          to label %30 unwind label %12

29:                                               ; preds = %22
  invoke void @_ZN2cv26convertPointsToHomogeneousERKNS_11_InputArrayERKNS_12_OutputArrayE(ptr noundef nonnull align 8 dereferenceable(24) %0, ptr noundef nonnull align 8 dereferenceable(24) %1)
          to label %30 unwind label %12

30:                                               ; preds = %29, %28
  %31 = getelementptr inbounds i8, ptr %3, i64 8
  %32 = load i32, ptr %31, align 8
  %.not.i = icmp eq i32 %32, 0
  br i1 %.not.i, label %_ZN2cv5utils5trace7details6RegionD2Ev.exit, label %33

33:                                               ; preds = %30
  invoke void @_ZN2cv5utils5trace7details6Region7destroyEv(ptr noundef nonnull align 8 dereferenceable(12) %3)
          to label %_ZN2cv5utils5trace7details6RegionD2Ev.exit unwind label %34

34:                                               ; preds = %33
  %35 = landingpad { ptr, i32 }
          catch ptr null
  %36 = extractvalue { ptr, i32 } %35, 0
  call void @__clang_call_terminate(ptr %36) #21
  unreachable

_ZN2cv5utils5trace7details6RegionD2Ev.exit:       ; preds = %30, %33
  ret void

37:                                               ; preds = %21, %12
  %.pn13 = phi { ptr, i32 } [ %13, %12 ], [ %.pn, %21 ]
  call void @_ZN2cv5utils5trace7details6RegionD2Ev(ptr noundef nonnull align 8 dereferenceable(12) %3) #17
  resume { ptr, i32 } %.pn13
}